target datalayout = "e-m:e-p270:32:32-p271:32:32-p272:64:64-i64:64-i128:128-f80:128-n8:16:32:64-S128"
target triple = "x86_64-unknown-linux-gnu"

%struct.Hmac = type { %union.wc_HmacHash, [36 x i32], [36 x i32], [16 x i32], ptr, i8, i8 }
%union.wc_HmacHash = type { %struct.wc_Sha3 }
%struct.wc_Sha3 = type { [25 x i64], [200 x i8], i8, ptr }

; Function Attrs: nounwind uwtable
define internal i32 @HmacKeyInnerHash(ptr noundef %hmac) #0 {
entry:
  %hmac.addr = alloca ptr, align 8
  %ret = alloca i32, align 4
  store ptr %hmac, ptr %hmac.addr, align 8
  store i32 0, ptr %ret, align 4
  %0 = load ptr, ptr %hmac.addr, align 8
  %macType = getelementptr inbounds %struct.Hmac, ptr %0, i32 0, i32 5
  %1 = load i8, ptr %macType, align 8
  %conv = zext i8 %1 to i32
  switch i32 %conv, label %sw.default [
    i32 3, label %sw.bb
    i32 4, label %sw.bb1
    i32 5, label %sw.bb6
    i32 6, label %sw.bb11
    i32 7, label %sw.bb16
    i32 8, label %sw.bb21
    i32 10, label %sw.bb26
    i32 11, label %sw.bb31
    i32 12, label %sw.bb36
    i32 13, label %sw.bb41
  ]

sw.bb:                                            ; preds = %entry
  %2 = load ptr, ptr %hmac.addr, align 8
  %hash = getelementptr inbounds %struct.Hmac, ptr %2, i32 0, i32 0
  %3 = load ptr, ptr %hmac.addr, align 8
  %ipad = getelementptr inbounds %struct.Hmac, ptr %3, i32 0, i32 1
  %arraydecay = getelementptr inbounds [36 x i32], ptr %ipad, i64 0, i64 0
  %call = call i32 @wc_Md5Update(ptr noundef %hash, ptr noundef %arraydecay, i32 noundef 64)
  store i32 %call, ptr %ret, align 4
  br label %sw.epilog

sw.bb1:                                           ; preds = %entry
  %4 = load ptr, ptr %hmac.addr, align 8
  %hash2 = getelementptr inbounds %struct.Hmac, ptr %4, i32 0, i32 0
  %5 = load ptr, ptr %hmac.addr, align 8
  %ipad3 = getelementptr inbounds %struct.Hmac, ptr %5, i32 0, i32 1
  %arraydecay4 = getelementptr inbounds [36 x i32], ptr %ipad3, i64 0, i64 0
  %call5 = call i32 @wc_ShaUpdate(ptr noundef %hash2, ptr noundef %arraydecay4, i32 noundef 64)
  store i32 %call5, ptr %ret, align 4
  br label %sw.epilog

sw.bb6:                                           ; preds = %entry
  %6 = load ptr, ptr %hmac.addr, align 8
  %hash7 = getelementptr inbounds %struct.Hmac, ptr %6, i32 0, i32 0
  %7 = load ptr, ptr %hmac.addr, align 8
  %ipad8 = getelementptr inbounds %struct.Hmac, ptr %7, i32 0, i32 1
  %arraydecay9 = getelementptr inbounds [36 x i32], ptr %ipad8, i64 0, i64 0
  %call10 = call i32 @wc_Sha224Update(ptr noundef %hash7, ptr noundef %arraydecay9, i32 noundef 64)
  store i32 %call10, ptr %ret, align 4
  br label %sw.epilog

sw.bb11:                                          ; preds = %entry
  %8 = load ptr, ptr %hmac.addr, align 8
  %hash12 = getelementptr inbounds %struct.Hmac, ptr %8, i32 0, i32 0
  %9 = load ptr, ptr %hmac.addr, align 8
  %ipad13 = getelementptr inbounds %struct.Hmac, ptr %9, i32 0, i32 1
  %arraydecay14 = getelementptr inbounds [36 x i32], ptr %ipad13, i64 0, i64 0
  %call15 = call i32 @wc_Sha256Update(ptr noundef %hash12, ptr noundef %arraydecay14, i32 noundef 64)
  store i32 %call15, ptr %ret, align 4
  br label %sw.epilog

sw.bb16:                                          ; preds = %entry
  %10 = load ptr, ptr %hmac.addr, align 8
  %hash17 = getelementptr inbounds %struct.Hmac, ptr %10, i32 0, i32 0
  %11 = load ptr, ptr %hmac.addr, align 8
  %ipad18 = getelementptr inbounds %struct.Hmac, ptr %11, i32 0, i32 1
  %arraydecay19 = getelementptr inbounds [36 x i32], ptr %ipad18, i64 0, i64 0
  %call20 = call i32 @wc_Sha384Update(ptr noundef %hash17, ptr noundef %arraydecay19, i32 noundef 128)
  store i32 %call20, ptr %ret, align 4
  br label %sw.epilog

sw.bb21:                                          ; preds = %entry
  %12 = load ptr, ptr %hmac.addr, align 8
  %hash22 = getelementptr inbounds %struct.Hmac, ptr %12, i32 0, i32 0
  %13 = load ptr, ptr %hmac.addr, align 8
  %ipad23 = getelementptr inbounds %struct.Hmac, ptr %13, i32 0, i32 1
  %arraydecay24 = getelementptr inbounds [36 x i32], ptr %ipad23, i64 0, i64 0
  %call25 = call i32 @wc_Sha512Update(ptr noundef %hash22, ptr noundef %arraydecay24, i32 noundef 128)
  store i32 %call25, ptr %ret, align 4
  br label %sw.epilog

sw.bb26:                                          ; preds = %entry
  %14 = load ptr, ptr %hmac.addr, align 8
  %hash27 = getelementptr inbounds %struct.Hmac, ptr %14, i32 0, i32 0
  %15 = load ptr, ptr %hmac.addr, align 8
  %ipad28 = getelementptr inbounds %struct.Hmac, ptr %15, i32 0, i32 1
  %arraydecay29 = getelementptr inbounds [36 x i32], ptr %ipad28, i64 0, i64 0
  %call30 = call i32 @wc_Sha3_224_Update(ptr noundef %hash27, ptr noundef %arraydecay29, i32 noundef 144)
  store i32 %call30, ptr %ret, align 4
  br label %sw.epilog

sw.bb31:                                          ; preds = %entry
  %16 = load ptr, ptr %hmac.addr, align 8
  %hash32 = getelementptr inbounds %struct.Hmac, ptr %16, i32 0, i32 0
  %17 = load ptr, ptr %hmac.addr, align 8
  %ipad33 = getelementptr inbounds %struct.Hmac, ptr %17, i32 0, i32 1
  %arraydecay34 = getelementptr inbounds [36 x i32], ptr %ipad33, i64 0, i64 0
  %call35 = call i32 @wc_Sha3_256_Update(ptr noundef %hash32, ptr noundef %arraydecay34, i32 noundef 136)
  store i32 %call35, ptr %ret, align 4
  br label %sw.epilog

sw.bb36:                                          ; preds = %entry
  %18 = load ptr, ptr %hmac.addr, align 8
  %hash37 = getelementptr inbounds %struct.Hmac, ptr %18, i32 0, i32 0
  %19 = load ptr, ptr %hmac.addr, align 8
  %ipad38 = getelementptr inbounds %struct.Hmac, ptr %19, i32 0, i32 1
  %arraydecay39 = getelementptr inbounds [36 x i32], ptr %ipad38, i64 0, i64 0
  %call40 = call i32 @wc_Sha3_384_Update(ptr noundef %hash37, ptr noundef %arraydecay39, i32 noundef 104)
  store i32 %call40, ptr %ret, align 4
  br label %sw.epilog

sw.bb41:                                          ; preds = %entry
  %20 = load ptr, ptr %hmac.addr, align 8
  %hash42 = getelementptr inbounds %struct.Hmac, ptr %20, i32 0, i32 0
  %21 = load ptr, ptr %hmac.addr, align 8
  %ipad43 = getelementptr inbounds %struct.Hmac, ptr %21, i32 0, i32 1
  %arraydecay44 = getelementptr inbounds [36 x i32], ptr %ipad43, i64 0, i64 0
  %call45 = call i32 @wc_Sha3_512_Update(ptr noundef %hash42, ptr noundef %arraydecay44, i32 noundef 72)
  store i32 %call45, ptr %ret, align 4
  br label %sw.epilog

sw.default:                                       ; preds = %entry
  br label %sw.epilog

sw.epilog:                                        ; preds = %sw.default, %sw.bb41, %sw.bb36, %sw.bb31, %sw.bb26, %sw.bb21, %sw.bb16, %sw.bb11, %sw.bb6, %sw.bb1, %sw.bb
  %22 = load i32, ptr %ret, align 4
  %cmp = icmp eq i32 %22, 0
  br i1 %cmp, label %if.then, label %if.end

if.then:                                          ; preds = %sw.epilog
  %23 = load ptr, ptr %hmac.addr, align 8
  %innerHashKeyed = getelementptr inbounds %struct.Hmac, ptr %23, i32 0, i32 6
  store i8 1, ptr %innerHashKeyed, align 1
  br label %if.end

if.end:                                           ; preds = %if.then, %sw.epilog
  %24 = load i32, ptr %ret, align 4
  ret i32 %24
}