; Function Attrs: nounwind uwtable
define internal fastcc i32 @HmacKeyInnerHash(ptr noundef nonnull %hmac) unnamed_addr #1 {
entry:
  %macType = getelementptr inbounds nuw i8, ptr %hmac, i64 776
  %0 = load i8, ptr %macType, align 8
  switch i8 %0, label %if.then [
    i8 3, label %sw.bb
    i8 4, label %sw.bb1
    i8 5, label %sw.bb6
    i8 6, label %sw.bb11
    i8 7, label %sw.bb16
    i8 8, label %sw.bb21
    i8 10, label %sw.bb26
    i8 11, label %sw.bb31
    i8 12, label %sw.bb36
    i8 13, label %sw.bb41
  ]

sw.bb:                                            ; preds = %entry
  %ipad = getelementptr inbounds nuw i8, ptr %hmac, i64 416
  %call = tail call i32 @wc_Md5Update(ptr noundef nonnull %hmac, ptr noundef nonnull %ipad, i32 noundef 64) #8
  br label %sw.epilog

sw.bb1:                                           ; preds = %entry
  %ipad3 = getelementptr inbounds nuw i8, ptr %hmac, i64 416
  %call5 = tail call i32 @wc_ShaUpdate(ptr noundef nonnull %hmac, ptr noundef nonnull %ipad3, i32 noundef 64) #8
  br label %sw.epilog

sw.bb6:                                           ; preds = %entry
  %ipad8 = getelementptr inbounds nuw i8, ptr %hmac, i64 416
  %call10 = tail call i32 @wc_Sha224Update(ptr noundef nonnull %hmac, ptr noundef nonnull %ipad8, i32 noundef 64) #8
  br label %sw.epilog

sw.bb11:                                          ; preds = %entry
  %ipad13 = getelementptr inbounds nuw i8, ptr %hmac, i64 416
  %call15 = tail call i32 @wc_Sha256Update(ptr noundef nonnull %hmac, ptr noundef nonnull %ipad13, i32 noundef 64) #8
  br label %sw.epilog

sw.bb16:                                          ; preds = %entry
  %ipad18 = getelementptr inbounds nuw i8, ptr %hmac, i64 416
  %call20 = tail call i32 @wc_Sha384Update(ptr noundef nonnull %hmac, ptr noundef nonnull %ipad18, i32 noundef 128) #8
  br label %sw.epilog

sw.bb21:                                          ; preds = %entry
  %ipad23 = getelementptr inbounds nuw i8, ptr %hmac, i64 416
  %call25 = tail call i32 @wc_Sha512Update(ptr noundef nonnull %hmac, ptr noundef nonnull %ipad23, i32 noundef 128) #8
  br label %sw.epilog

sw.bb26:                                          ; preds = %entry
  %ipad28 = getelementptr inbounds nuw i8, ptr %hmac, i64 416
  %call30 = tail call i32 @wc_Sha3_224_Update(ptr noundef nonnull %hmac, ptr noundef nonnull %ipad28, i32 noundef 144) #8
  br label %sw.epilog

sw.bb31:                                          ; preds = %entry
  %ipad33 = getelementptr inbounds nuw i8, ptr %hmac, i64 416
  %call35 = tail call i32 @wc_Sha3_256_Update(ptr noundef nonnull %hmac, ptr noundef nonnull %ipad33, i32 noundef 136) #8
  br label %sw.epilog

sw.bb36:                                          ; preds = %entry
  %ipad38 = getelementptr inbounds nuw i8, ptr %hmac, i64 416
  %call40 = tail call i32 @wc_Sha3_384_Update(ptr noundef nonnull %hmac, ptr noundef nonnull %ipad38, i32 noundef 104) #8
  br label %sw.epilog

sw.bb41:                                          ; preds = %entry
  %ipad43 = getelementptr inbounds nuw i8, ptr %hmac, i64 416
  %call45 = tail call i32 @wc_Sha3_512_Update(ptr noundef nonnull %hmac, ptr noundef nonnull %ipad43, i32 noundef 72) #8
  br label %sw.epilog

sw.epilog:                                        ; preds = %sw.bb41, %sw.bb36, %sw.bb31, %sw.bb26, %sw.bb21, %sw.bb16, %sw.bb11, %sw.bb6, %sw.bb1, %sw.bb
  %ret.0 = phi i32 [ %call45, %sw.bb41 ], [ %call40, %sw.bb36 ], [ %call35, %sw.bb31 ], [ %call30, %sw.bb26 ], [ %call25, %sw.bb21 ], [ %call20, %sw.bb16 ], [ %call15, %sw.bb11 ], [ %call10, %sw.bb6 ], [ %call5, %sw.bb1 ], [ %call, %sw.bb ]
  %cmp = icmp eq i32 %ret.0, 0
  br i1 %cmp, label %if.then, label %if.end

if.then:                                          ; preds = %entry, %sw.epilog
  %innerHashKeyed = getelementptr inbounds nuw i8, ptr %hmac, i64 777
  store i8 1, ptr %innerHashKeyed, align 1
  br label %if.end

if.end:                                           ; preds = %if.then, %sw.epilog
  %ret.025 = phi i32 [ 0, %if.then ], [ %ret.0, %sw.epilog ]
  ret i32 %ret.025
}